target datalayout = "e-m:e-p270:32:32-p271:32:32-p272:64:64-i64:64-i128:128-f80:128-n8:16:32:64-S128"
target triple = "x86_64-pc-linux-gnu"

%"class.boost::detail::shared_count" = type { ptr }
%"class.boost::log::v2_mt_posix::attribute_name" = type { i32 }
%"class.boost::log::v2_mt_posix::core" = type { ptr }
%"struct.boost::log::v2_mt_posix::core::implementation" = type { %"class.boost::log::v2_mt_posix::aux::light_rw_mutex", %"class.std::vector", %"class.boost::shared_ptr", %"class.boost::log::v2_mt_posix::attribute_set", %"class.boost::thread_specific_ptr", %"class.boost::atomics::atomic.5", %"class.boost::log::v2_mt_posix::filter", %"class.boost::log::v2_mt_posix::aux::light_function.8" }
%"class.boost::log::v2_mt_posix::aux::light_rw_mutex" = type { %union.pthread_rwlock_t }
%union.pthread_rwlock_t = type { %struct.__pthread_rwlock_arch_t }
%struct.__pthread_rwlock_arch_t = type { i32, i32, i32, i32, i32, i32, i32, i32, i8, [7 x i8], i64, i32 }
%"class.std::vector" = type { %"struct.std::_Vector_base" }
%"struct.std::_Vector_base" = type { %"struct.std::_Vector_base<boost::shared_ptr<boost::log::v2_mt_posix::sinks::sink>, std::allocator<boost::shared_ptr<boost::log::v2_mt_posix::sinks::sink>>>::_Vector_impl" }
%"struct.std::_Vector_base<boost::shared_ptr<boost::log::v2_mt_posix::sinks::sink>, std::allocator<boost::shared_ptr<boost::log::v2_mt_posix::sinks::sink>>>::_Vector_impl" = type { %"struct.std::_Vector_base<boost::shared_ptr<boost::log::v2_mt_posix::sinks::sink>, std::allocator<boost::shared_ptr<boost::log::v2_mt_posix::sinks::sink>>>::_Vector_impl_data" }
%"struct.std::_Vector_base<boost::shared_ptr<boost::log::v2_mt_posix::sinks::sink>, std::allocator<boost::shared_ptr<boost::log::v2_mt_posix::sinks::sink>>>::_Vector_impl_data" = type { ptr, ptr, ptr }
%"class.boost::shared_ptr" = type { ptr, %"class.boost::detail::shared_count" }
%"class.boost::log::v2_mt_posix::attribute_set" = type { ptr }
%"class.boost::thread_specific_ptr" = type { ptr }
%"class.boost::atomics::atomic.5" = type { %"class.boost::atomics::detail::base_atomic.6" }
%"class.boost::atomics::detail::base_atomic.6" = type { %"class.boost::atomics::detail::base_atomic_common.7" }
%"class.boost::atomics::detail::base_atomic_common.7" = type { i8 }
%"class.boost::log::v2_mt_posix::filter" = type { %"class.boost::log::v2_mt_posix::aux::light_function" }
%"class.boost::log::v2_mt_posix::aux::light_function" = type { ptr }
%"class.boost::log::v2_mt_posix::aux::light_function.8" = type { ptr }
%"struct.std::pair.11" = type <{ %"class.boost::log::v2_mt_posix::attribute_set::iter", i8, [7 x i8] }>
%"class.boost::log::v2_mt_posix::attribute_set::iter" = type { ptr }
%"struct.boost::log::v2_mt_posix::core::implementation::thread_data" = type <{ %"class.boost::log::v2_mt_posix::attribute_set", %"class.boost::random::xor_combine_engine", [4 x i8] }>
%"class.boost::random::xor_combine_engine" = type { %"class.boost::random::xor_combine_engine.14", %"class.boost::random::linear_feedback_shift_engine.16" }
%"class.boost::random::xor_combine_engine.14" = type { %"class.boost::random::linear_feedback_shift_engine", %"class.boost::random::linear_feedback_shift_engine.15" }
%"class.boost::random::linear_feedback_shift_engine" = type { i32 }
%"class.boost::random::linear_feedback_shift_engine.15" = type { i32 }
%"class.boost::random::linear_feedback_shift_engine.16" = type { i32 }

; Function Attrs: mustprogress uwtable
define linkonce_odr hidden noundef ptr @_ZNK5boost19thread_specific_ptrINS_3log11v2_mt_posix4core14implementation11thread_dataEE3getEv(ptr noundef nonnull align 8 dereferenceable(8) %0) #3 comdat align 2 {
  %2 = alloca ptr, align 8
  store ptr %0, ptr %2, align 8, !tbaa !3
  %3 = load ptr, ptr %2, align 8
  %4 = call noundef ptr @_ZN5boost6detail12get_tss_dataEPKv(ptr noundef %3)
  ret ptr %4
}

; Function Attrs: mustprogress uwtable
define linkonce_odr hidden noundef ptr @_ZN5boost3log11v2_mt_posix4core14implementation15get_thread_dataEv(ptr noundef nonnull align 8 dereferenceable(136) %0) #3 comdat align 2 {
  %2 = alloca ptr, align 8
  %3 = alloca ptr, align 8
  store ptr %0, ptr %2, align 8, !tbaa !3
  %4 = load ptr, ptr %2, align 8
  call void @llvm.lifetime.start.p0(i64 8, ptr %3) #17
  %5 = getelementptr inbounds nuw %"struct.boost::log::v2_mt_posix::core::implementation", ptr %4, i32 0, i32 4
  %6 = call noundef ptr @_ZNK5boost19thread_specific_ptrINS_3log11v2_mt_posix4core14implementation11thread_dataEE3getEv(ptr noundef nonnull align 8 dereferenceable(8) %5)
  store ptr %6, ptr %3, align 8, !tbaa !3
  %7 = load ptr, ptr %3, align 8, !tbaa !3
  %8 = icmp ne ptr %7, null
  %9 = xor i1 %8, true
  %10 = zext i1 %9 to i64
  %11 = call i64 @llvm.expect.i64(i64 %10, i64 0)
  %12 = icmp ne i64 %11, 0
  br i1 %12, label %13, label %16

13:                                               ; preds = %1
  call void @_ZN5boost3log11v2_mt_posix4core14implementation16init_thread_dataEv(ptr noundef nonnull align 8 dereferenceable(136) %4)
  %14 = getelementptr inbounds nuw %"struct.boost::log::v2_mt_posix::core::implementation", ptr %4, i32 0, i32 4
  %15 = call noundef ptr @_ZNK5boost19thread_specific_ptrINS_3log11v2_mt_posix4core14implementation11thread_dataEE3getEv(ptr noundef nonnull align 8 dereferenceable(8) %14)
  store ptr %15, ptr %3, align 8, !tbaa !3
  br label %16

16:                                               ; preds = %13, %1
  %17 = load ptr, ptr %3, align 8, !tbaa !3
  call void @llvm.lifetime.end.p0(i64 8, ptr %3) #17
  ret ptr %17
}

; Function Attrs: mustprogress uwtable
define { ptr, i8 } @_ZN5boost3log11v2_mt_posix4core20add_thread_attributeERKNS1_14attribute_nameERKNS1_9attributeE(ptr noundef nonnull align 8 dereferenceable(8) %0, ptr noundef nonnull align 4 dereferenceable(4) %1, ptr noundef nonnull align 8 dereferenceable(8) %2) #3 align 2 {
  %4 = alloca %"struct.std::pair.11", align 8
  %5 = alloca ptr, align 8
  %6 = alloca ptr, align 8
  %7 = alloca ptr, align 8
  %8 = alloca ptr, align 8
  %9 = alloca %"class.boost::log::v2_mt_posix::attribute_name", align 4
  %10 = alloca { ptr, i8 }, align 8
  store ptr %0, ptr %5, align 8, !tbaa !3
  store ptr %1, ptr %6, align 8, !tbaa !3
  store ptr %2, ptr %7, align 8, !tbaa !3
  %11 = load ptr, ptr %5, align 8
  call void @llvm.lifetime.start.p0(i64 8, ptr %8) #17
  %12 = getelementptr inbounds nuw %"class.boost::log::v2_mt_posix::core", ptr %11, i32 0, i32 0
  %13 = load ptr, ptr %12, align 8, !tbaa !33
  %14 = call noundef ptr @_ZN5boost3log11v2_mt_posix4core14implementation15get_thread_dataEv(ptr noundef nonnull align 8 dereferenceable(136) %13)
  store ptr %14, ptr %8, align 8, !tbaa !3
  %15 = load ptr, ptr %8, align 8, !tbaa !3
  %16 = getelementptr inbounds nuw %"struct.boost::log::v2_mt_posix::core::implementation::thread_data", ptr %15, i32 0, i32 0
  %17 = load ptr, ptr %6, align 8, !tbaa !3
  call void @llvm.memcpy.p0.p0.i64(ptr align 4 %9, ptr align 4 %17, i64 4, i1 false), !tbaa.struct !51
  %18 = load ptr, ptr %7, align 8, !tbaa !3
  %19 = getelementptr inbounds nuw %"class.boost::log::v2_mt_posix::attribute_name", ptr %9, i32 0, i32 0
  %20 = load i32, ptr %19, align 4
  %21 = call { ptr, i8 } @_ZN5boost3log11v2_mt_posix13attribute_set6insertENS1_14attribute_nameERKNS1_9attributeE(ptr noundef nonnull align 8 dereferenceable(8) %16, i32 %20, ptr noundef nonnull align 8 dereferenceable(8) %18)
  store { ptr, i8 } %21, ptr %10, align 8
  call void @llvm.memcpy.p0.p0.i64(ptr align 8 %4, ptr align 8 %10, i64 9, i1 false)
  call void @llvm.lifetime.end.p0(i64 8, ptr %8) #17
  %22 = load { ptr, i8 }, ptr %4, align 8
  ret { ptr, i8 } %22
}