; Function Attrs: mustprogress uwtable
define { ptr, i8 } @_ZN5boost3log11v2_mt_posix4core20add_thread_attributeERKNS1_14attribute_nameERKNS1_9attributeE(ptr nocapture noundef nonnull readonly align 8 dereferenceable(8) %0, ptr nocapture noundef nonnull readonly align 4 dereferenceable(4) %1, ptr noundef nonnull align 8 dereferenceable(8) %2) local_unnamed_addr #4 align 2 {
  %4 = load ptr, ptr %0, align 8, !tbaa !33
  %5 = getelementptr inbounds nuw i8, ptr %4, i64 104
  %6 = tail call noundef ptr @_ZN5boost6detail12get_tss_dataEPKv(ptr noundef nonnull align 8 dereferenceable(8) %5)
  %.not.i = icmp eq ptr %6, null
  br i1 %.not.i, label %7, label %_ZN5boost3log11v2_mt_posix4core14implementation15get_thread_dataEv.exit, !prof !76

7:                                                ; preds = %3
  tail call void @_ZN5boost3log11v2_mt_posix4core14implementation16init_thread_dataEv(ptr noundef nonnull align 8 dereferenceable(136) %4)
  %8 = tail call noundef ptr @_ZN5boost6detail12get_tss_dataEPKv(ptr noundef nonnull align 8 dereferenceable(8) %5)
  br label %_ZN5boost3log11v2_mt_posix4core14implementation15get_thread_dataEv.exit

_ZN5boost3log11v2_mt_posix4core14implementation15get_thread_dataEv.exit: ; preds = %3, %7
  %.0.i = phi ptr [ %8, %7 ], [ %6, %3 ]
  %.sroa.01.0.copyload = load i32, ptr %1, align 4, !tbaa !73
  %9 = tail call { ptr, i8 } @_ZN5boost3log11v2_mt_posix13attribute_set6insertENS1_14attribute_nameERKNS1_9attributeE(ptr noundef nonnull align 8 dereferenceable(8) %.0.i, i32 %.sroa.01.0.copyload, ptr noundef nonnull align 8 dereferenceable(8) %2)
  ret { ptr, i8 } %9
}